target datalayout = "e-m:e-p270:32:32-p271:32:32-p272:64:64-i64:64-i128:128-f80:128-n8:16:32:64-S128"
target triple = "x86_64-pc-linux-gnu"

%struct.dsa_area_control = type { %struct.dsa_segment_header, i32, [1024 x i32], [16 x i64], [38 x %struct.dsa_area_pool], i64, i64, i64, i64, i64, i32, i8, i64, i32, %struct.LWLock }
%struct.dsa_segment_header = type { i32, i64, i64, i64, i64, i64, i8 }
%struct.dsa_area_pool = type { %struct.LWLock, [4 x i64] }
%struct.LWLock = type { i16, %struct.pg_atomic_uint32, %struct.proclist_head }
%struct.pg_atomic_uint32 = type { i32 }
%struct.proclist_head = type { i32, i32 }
%struct.dsa_area = type { ptr, ptr, [1024 x %struct.dsa_segment_map], i64, i64 }
%struct.dsa_segment_map = type { ptr, ptr, ptr, ptr, ptr }

@.str.1 = private unnamed_addr constant [6 x i8] c"dsa.c\00", align 1
@CurrentResourceOwner = external global ptr, align 8
@.str.26 = private unnamed_addr constant [59 x i8] c"dsa_area could not attach to a segment that has been freed\00", align 1
@__func__.get_segment_by_index = private unnamed_addr constant [21 x i8] c"get_segment_by_index\00", align 1
@.str.27 = private unnamed_addr constant [37 x i8] c"dsa_area could not attach to segment\00", align 1

; Function Attrs: nounwind uwtable
define internal ptr @get_segment_by_index(ptr noundef %0, i64 noundef %1) #0 {
  %3 = alloca ptr, align 8
  %4 = alloca i64, align 8
  %5 = alloca i32, align 4
  %6 = alloca ptr, align 8
  %7 = alloca ptr, align 8
  %8 = alloca ptr, align 8
  store ptr %0, ptr %3, align 8
  store i64 %1, ptr %4, align 8
  %9 = load ptr, ptr %3, align 8
  %10 = getelementptr inbounds nuw %struct.dsa_area, ptr %9, i32 0, i32 2
  %11 = load i64, ptr %4, align 8
  %12 = getelementptr inbounds nuw [1024 x %struct.dsa_segment_map], ptr %10, i64 0, i64 %11
  %13 = getelementptr inbounds nuw %struct.dsa_segment_map, ptr %12, i32 0, i32 1
  %14 = load ptr, ptr %13, align 8
  %15 = icmp eq ptr %14, null
  %16 = zext i1 %15 to i32
  %17 = icmp ne i32 %16, 0
  %18 = zext i1 %17 to i32
  %19 = sext i32 %18 to i64
  %20 = call i64 @llvm.expect.i64(i64 %19, i64 0)
  %21 = icmp ne i64 %20, 0
  br i1 %21, label %22, label %104

22:                                               ; preds = %2
  call void @llvm.lifetime.start.p0(i64 4, ptr %5) #8
  call void @llvm.lifetime.start.p0(i64 8, ptr %6) #8
  call void @llvm.lifetime.start.p0(i64 8, ptr %7) #8
  call void @llvm.lifetime.start.p0(i64 8, ptr %8) #8
  %23 = load ptr, ptr %3, align 8
  %24 = getelementptr inbounds nuw %struct.dsa_area, ptr %23, i32 0, i32 0
  %25 = load ptr, ptr %24, align 8
  %26 = getelementptr inbounds nuw %struct.dsa_area_control, ptr %25, i32 0, i32 2
  %27 = load i64, ptr %4, align 8
  %28 = getelementptr inbounds nuw [1024 x i32], ptr %26, i64 0, i64 %27
  %29 = load i32, ptr %28, align 4
  store i32 %29, ptr %5, align 4
  %30 = load i32, ptr %5, align 4
  %31 = icmp eq i32 %30, 0
  br i1 %31, label %32, label %43

32:                                               ; preds = %22
  br label %33

33:                                               ; preds = %32
  br i1 true, label %34, label %36

34:                                               ; preds = %33
  %35 = call zeroext i1 @errstart_cold(i32 noundef 21, ptr noundef null) #9
  br i1 %35, label %38, label %40

36:                                               ; preds = %33
  %37 = call zeroext i1 @errstart(i32 noundef 21, ptr noundef null)
  br i1 %37, label %38, label %40

38:                                               ; preds = %36, %34
  %39 = call i32 (ptr, ...) @errmsg_internal(ptr noundef @.str.26)
  call void @errfinish(ptr noundef @.str.1, i32 noundef 1781, ptr noundef @__func__.get_segment_by_index)
  br label %40

40:                                               ; preds = %38, %36, %34
  unreachable

41:                                               ; No predecessors!
  br label %42

42:                                               ; preds = %41
  br label %43

43:                                               ; preds = %42, %22
  %44 = load ptr, ptr @CurrentResourceOwner, align 8
  store ptr %44, ptr %8, align 8
  %45 = load ptr, ptr %3, align 8
  %46 = getelementptr inbounds nuw %struct.dsa_area, ptr %45, i32 0, i32 1
  %47 = load ptr, ptr %46, align 8
  store ptr %47, ptr @CurrentResourceOwner, align 8
  %48 = load i32, ptr %5, align 4
  %49 = call ptr @dsm_attach(i32 noundef %48)
  store ptr %49, ptr %6, align 8
  %50 = load ptr, ptr %8, align 8
  store ptr %50, ptr @CurrentResourceOwner, align 8
  %51 = load ptr, ptr %6, align 8
  %52 = icmp eq ptr %51, null
  br i1 %52, label %53, label %64

53:                                               ; preds = %43
  br label %54

54:                                               ; preds = %53
  br i1 true, label %55, label %57

55:                                               ; preds = %54
  %56 = call zeroext i1 @errstart_cold(i32 noundef 21, ptr noundef null) #9
  br i1 %56, label %59, label %61

57:                                               ; preds = %54
  %58 = call zeroext i1 @errstart(i32 noundef 21, ptr noundef null)
  br i1 %58, label %59, label %61

59:                                               ; preds = %57, %55
  %60 = call i32 (ptr, ...) @errmsg_internal(ptr noundef @.str.27)
  call void @errfinish(ptr noundef @.str.1, i32 noundef 1788, ptr noundef @__func__.get_segment_by_index)
  br label %61

61:                                               ; preds = %59, %57, %55
  unreachable

62:                                               ; No predecessors!
  br label %63

63:                                               ; preds = %62
  br label %64

64:                                               ; preds = %63, %43
  %65 = load ptr, ptr %3, align 8
  %66 = getelementptr inbounds nuw %struct.dsa_area, ptr %65, i32 0, i32 2
  %67 = load i64, ptr %4, align 8
  %68 = getelementptr inbounds nuw [1024 x %struct.dsa_segment_map], ptr %66, i64 0, i64 %67
  store ptr %68, ptr %7, align 8
  %69 = load ptr, ptr %6, align 8
  %70 = load ptr, ptr %7, align 8
  %71 = getelementptr inbounds nuw %struct.dsa_segment_map, ptr %70, i32 0, i32 0
  store ptr %69, ptr %71, align 8
  %72 = load ptr, ptr %6, align 8
  %73 = call ptr @dsm_segment_address(ptr noundef %72)
  %74 = load ptr, ptr %7, align 8
  %75 = getelementptr inbounds nuw %struct.dsa_segment_map, ptr %74, i32 0, i32 1
  store ptr %73, ptr %75, align 8
  %76 = load ptr, ptr %7, align 8
  %77 = getelementptr inbounds nuw %struct.dsa_segment_map, ptr %76, i32 0, i32 1
  %78 = load ptr, ptr %77, align 8
  %79 = load ptr, ptr %7, align 8
  %80 = getelementptr inbounds nuw %struct.dsa_segment_map, ptr %79, i32 0, i32 2
  store ptr %78, ptr %80, align 8
  %81 = load ptr, ptr %7, align 8
  %82 = getelementptr inbounds nuw %struct.dsa_segment_map, ptr %81, i32 0, i32 1
  %83 = load ptr, ptr %82, align 8
  %84 = getelementptr inbounds nuw i8, ptr %83, i64 56
  %85 = load ptr, ptr %7, align 8
  %86 = getelementptr inbounds nuw %struct.dsa_segment_map, ptr %85, i32 0, i32 3
  store ptr %84, ptr %86, align 8
  %87 = load ptr, ptr %7, align 8
  %88 = getelementptr inbounds nuw %struct.dsa_segment_map, ptr %87, i32 0, i32 1
  %89 = load ptr, ptr %88, align 8
  %90 = getelementptr inbounds nuw i8, ptr %89, i64 56
  %91 = getelementptr inbounds nuw i8, ptr %90, i64 1096
  %92 = load ptr, ptr %7, align 8
  %93 = getelementptr inbounds nuw %struct.dsa_segment_map, ptr %92, i32 0, i32 4
  store ptr %91, ptr %93, align 8
  %94 = load ptr, ptr %3, align 8
  %95 = getelementptr inbounds nuw %struct.dsa_area, ptr %94, i32 0, i32 3
  %96 = load i64, ptr %95, align 8
  %97 = load i64, ptr %4, align 8
  %98 = icmp ult i64 %96, %97
  br i1 %98, label %99, label %103

99:                                               ; preds = %64
  %100 = load i64, ptr %4, align 8
  %101 = load ptr, ptr %3, align 8
  %102 = getelementptr inbounds nuw %struct.dsa_area, ptr %101, i32 0, i32 3
  store i64 %100, ptr %102, align 8
  br label %103

103:                                              ; preds = %99, %64
  call void @llvm.lifetime.end.p0(i64 8, ptr %8) #8
  call void @llvm.lifetime.end.p0(i64 8, ptr %7) #8
  call void @llvm.lifetime.end.p0(i64 8, ptr %6) #8
  call void @llvm.lifetime.end.p0(i64 4, ptr %5) #8
  br label %104

104:                                              ; preds = %103, %2
  %105 = load ptr, ptr %3, align 8
  %106 = getelementptr inbounds nuw %struct.dsa_area, ptr %105, i32 0, i32 2
  %107 = load i64, ptr %4, align 8
  %108 = getelementptr inbounds nuw [1024 x %struct.dsa_segment_map], ptr %106, i64 0, i64 %107
  ret ptr %108
}