; Function Attrs: nounwind uwtable
define internal fastcc nonnull ptr @get_segment_by_index(ptr noundef captures(ret: address, provenance) %0, i64 noundef range(i64 0, -1) %1) unnamed_addr #0 {
  %3 = getelementptr inbounds nuw i8, ptr %0, i64 16
  %4 = getelementptr inbounds nuw [1024 x %struct.dsa_segment_map], ptr %3, i64 0, i64 %1
  %5 = getelementptr inbounds nuw i8, ptr %4, i64 8
  %6 = load ptr, ptr %5, align 8
  %7 = icmp eq ptr %6, null
  br i1 %7, label %8, label %37, !prof !11

8:                                                ; preds = %2
  %9 = load ptr, ptr %0, align 8
  %10 = getelementptr inbounds nuw i8, ptr %9, i64 60
  %11 = getelementptr inbounds nuw [1024 x i32], ptr %10, i64 0, i64 %1
  %12 = load i32, ptr %11, align 4
  %13 = icmp eq i32 %12, 0
  br i1 %13, label %14, label %17

14:                                               ; preds = %8
  %15 = tail call zeroext i1 @errstart_cold(i32 noundef 21, ptr noundef null) #12
  tail call void @llvm.assume(i1 %15)
  %16 = tail call i32 (ptr, ...) @errmsg_internal(ptr noundef nonnull @.str.26) #11
  tail call void @errfinish(ptr noundef nonnull @.str.1, i32 noundef 1781, ptr noundef nonnull @__func__.get_segment_by_index) #11
  unreachable

17:                                               ; preds = %8
  %18 = load ptr, ptr @CurrentResourceOwner, align 8
  %19 = getelementptr inbounds nuw i8, ptr %0, i64 8
  %20 = load ptr, ptr %19, align 8
  store ptr %20, ptr @CurrentResourceOwner, align 8
  %21 = tail call ptr @dsm_attach(i32 noundef %12) #11
  store ptr %18, ptr @CurrentResourceOwner, align 8
  %22 = icmp eq ptr %21, null
  br i1 %22, label %23, label %26

23:                                               ; preds = %17
  %24 = tail call zeroext i1 @errstart_cold(i32 noundef 21, ptr noundef null) #12
  tail call void @llvm.assume(i1 %24)
  %25 = tail call i32 (ptr, ...) @errmsg_internal(ptr noundef nonnull @.str.27) #11
  tail call void @errfinish(ptr noundef nonnull @.str.1, i32 noundef 1788, ptr noundef nonnull @__func__.get_segment_by_index) #11
  unreachable

26:                                               ; preds = %17
  store ptr %21, ptr %4, align 8
  %27 = tail call ptr @dsm_segment_address(ptr noundef nonnull %21) #11
  store ptr %27, ptr %5, align 8
  %28 = getelementptr inbounds nuw i8, ptr %4, i64 16
  store ptr %27, ptr %28, align 8
  %29 = getelementptr inbounds nuw i8, ptr %27, i64 56
  %30 = getelementptr inbounds nuw i8, ptr %4, i64 24
  store ptr %29, ptr %30, align 8
  %31 = getelementptr inbounds nuw i8, ptr %27, i64 1152
  %32 = getelementptr inbounds nuw i8, ptr %4, i64 32
  store ptr %31, ptr %32, align 8
  %33 = getelementptr inbounds nuw i8, ptr %0, i64 40976
  %34 = load i64, ptr %33, align 8
  %35 = icmp ult i64 %34, %1
  br i1 %35, label %36, label %37

36:                                               ; preds = %26
  store i64 %1, ptr %33, align 8
  br label %37

37:                                               ; preds = %26, %36, %2
  ret ptr %4
}